target datalayout = "e-m:e-p270:32:32-p271:32:32-p272:64:64-i64:64-i128:128-f80:128-n8:16:32:64-S128"
target triple = "x86_64-pc-linux-gnu"

; Function Attrs: inlinehint mustprogress nounwind uwtable
define internal noundef signext i8 @_ZL9U_FAILURE10UErrorCode(i32 noundef %0) #2 {
  %2 = alloca i32, align 4
  store i32 %0, ptr %2, align 4, !tbaa !13
  %3 = load i32, ptr %2, align 4, !tbaa !13
  %4 = icmp sgt i32 %3, 0
  %5 = zext i1 %4 to i8
  ret i8 %5
}

; Function Attrs: mustprogress uwtable
define i32 @u_getISOComment_77(i32 noundef %0, ptr noundef %1, i32 noundef %2, ptr noundef %3) #0 {
  %5 = alloca i32, align 4
  %6 = alloca i32, align 4
  %7 = alloca ptr, align 8
  %8 = alloca i32, align 4
  %9 = alloca ptr, align 8
  store i32 %0, ptr %6, align 4, !tbaa !3
  store ptr %1, ptr %7, align 8, !tbaa !9
  store i32 %2, ptr %8, align 4, !tbaa !3
  store ptr %3, ptr %9, align 8, !tbaa !12
  %10 = load ptr, ptr %9, align 8, !tbaa !12
  %11 = icmp eq ptr %10, null
  br i1 %11, label %17, label %12

12:                                               ; preds = %4
  %13 = load ptr, ptr %9, align 8, !tbaa !12
  %14 = load i32, ptr %13, align 4, !tbaa !13
  %15 = call noundef signext i8 @_ZL9U_FAILURE10UErrorCode(i32 noundef %14)
  %16 = icmp ne i8 %15, 0
  br i1 %16, label %17, label %18

17:                                               ; preds = %12, %4
  store i32 0, ptr %5, align 4
  br label %35

18:                                               ; preds = %12
  %19 = load i32, ptr %8, align 4, !tbaa !3
  %20 = icmp slt i32 %19, 0
  br i1 %20, label %27, label %21

21:                                               ; preds = %18
  %22 = load i32, ptr %8, align 4, !tbaa !3
  %23 = icmp sgt i32 %22, 0
  br i1 %23, label %24, label %29

24:                                               ; preds = %21
  %25 = load ptr, ptr %7, align 8, !tbaa !9
  %26 = icmp eq ptr %25, null
  br i1 %26, label %27, label %29

27:                                               ; preds = %24, %18
  %28 = load ptr, ptr %9, align 8, !tbaa !12
  store i32 1, ptr %28, align 4, !tbaa !13
  store i32 0, ptr %5, align 4
  br label %35

29:                                               ; preds = %24, %21
  br label %30

30:                                               ; preds = %29
  %31 = load ptr, ptr %7, align 8, !tbaa !9
  %32 = load i32, ptr %8, align 4, !tbaa !3
  %33 = load ptr, ptr %9, align 8, !tbaa !12
  %34 = call i32 @u_terminateChars_77(ptr noundef %31, i32 noundef %32, i32 noundef 0, ptr noundef %33)
  store i32 %34, ptr %5, align 4
  br label %35

35:                                               ; preds = %30, %27, %17
  %36 = load i32, ptr %5, align 4
  ret i32 %36
}