; Function Attrs: mustprogress uwtable
define i32 @u_getISOComment_77(i32 noundef %0, ptr noundef %1, i32 noundef %2, ptr noundef %3) local_unnamed_addr #0 {
  %5 = icmp eq ptr %3, null
  br i1 %5, label %17, label %6

6:                                                ; preds = %4
  %7 = load i32, ptr %3, align 4, !tbaa !3
  %8 = icmp slt i32 %7, 1
  br i1 %8, label %9, label %17

9:                                                ; preds = %6
  %10 = icmp slt i32 %2, 0
  br i1 %10, label %14, label %11

11:                                               ; preds = %9
  %12 = icmp ne i32 %2, 0
  %13 = icmp eq ptr %1, null
  %or.cond = and i1 %13, %12
  br i1 %or.cond, label %14, label %15

14:                                               ; preds = %11, %9
  store i32 1, ptr %3, align 4, !tbaa !3
  br label %17

15:                                               ; preds = %11
  %16 = tail call i32 @u_terminateChars_77(ptr noundef %1, i32 noundef %2, i32 noundef 0, ptr noundef nonnull %3)
  br label %17

17:                                               ; preds = %4, %6, %15, %14
  %.0 = phi i32 [ 0, %14 ], [ %16, %15 ], [ 0, %6 ], [ 0, %4 ]
  ret i32 %.0
}